; ModuleID = 'source-C-CXX/53/997.c'
source_filename = "source-C-CXX/53/997.c"
target datalayout = "e-m:e-p270:32:32-p271:32:32-p272:64:64-i64:64-f80:128-n8:16:32:64-S128"
target triple = "x86_64-pc-linux-gnu"

@.str = private unnamed_addr constant [5 x i8] c"%d%d\00", align 1
@.str.1 = private unnamed_addr constant [3 x i8] c"%d\00", align 1

; Function Attrs: nofree nounwind sspstrong uwtable
define dso_local i32 @main() local_unnamed_addr #0 {
  %1 = alloca i32, align 4
  %2 = alloca i32, align 4
  %3 = bitcast i32* %1 to i8*
  call void @llvm.lifetime.start.p0i8(i64 4, i8* nonnull %3) #3
  %4 = bitcast i32* %2 to i8*
  call void @llvm.lifetime.start.p0i8(i64 4, i8* nonnull %4) #3
  %5 = call i32 (i8*, ...) @__isoc99_scanf(i8* getelementptr inbounds ([5 x i8], [5 x i8]* @.str, i64 0, i64 0), i32* nonnull %1, i32* nonnull %2)
  %6 = load i32, i32* %1, align 4, !tbaa !5
  %7 = add nsw i32 %6, -1
  %8 = load i32, i32* %2, align 4
  %9 = icmp slt i32 %6, 1
  br i1 %9, label %10, label %12

10:                                               ; preds = %0
  %11 = mul nsw i32 %7, 999999
  br label %29

12:                                               ; preds = %0, %26
  %13 = phi i32 [ %27, %26 ], [ 1, %0 ]
  %14 = mul nsw i32 %7, %13
  br label %19

15:                                               ; preds = %19
  %16 = add nuw nsw i32 %21, 1
  %17 = srem i32 %24, %7
  %18 = icmp eq i32 %17, 0
  br i1 %18, label %19, label %26, !llvm.loop !9

19:                                               ; preds = %12, %15
  %20 = phi i32 [ %14, %12 ], [ %24, %15 ]
  %21 = phi i32 [ 1, %12 ], [ %16, %15 ]
  %22 = mul nsw i32 %20, %6
  %23 = sdiv i32 %22, %7
  %24 = add nsw i32 %8, %23
  %25 = icmp eq i32 %21, %6
  br i1 %25, label %29, label %15

26:                                               ; preds = %15
  %27 = add nuw nsw i32 %13, 1
  %28 = icmp eq i32 %27, 1000000
  br i1 %28, label %29, label %12, !llvm.loop !11

29:                                               ; preds = %26, %19, %10
  %30 = phi i32 [ %11, %10 ], [ %24, %19 ], [ %24, %26 ]
  %31 = call i32 (i8*, ...) @printf(i8* nonnull dereferenceable(1) getelementptr inbounds ([3 x i8], [3 x i8]* @.str.1, i64 0, i64 0), i32 %30)
  call void @llvm.lifetime.end.p0i8(i64 4, i8* nonnull %4) #3
  call void @llvm.lifetime.end.p0i8(i64 4, i8* nonnull %3) #3
  ret i32 0
}

; Function Attrs: argmemonly mustprogress nofree nosync nounwind willreturn
declare void @llvm.lifetime.start.p0i8(i64 immarg, i8* nocapture) #1

; Function Attrs: nofree nounwind
declare noundef i32 @__isoc99_scanf(i8* nocapture noundef readonly, ...) local_unnamed_addr #2

; Function Attrs: nofree nounwind
declare noundef i32 @printf(i8* nocapture noundef readonly, ...) local_unnamed_addr #2

; Function Attrs: argmemonly mustprogress nofree nosync nounwind willreturn
declare void @llvm.lifetime.end.p0i8(i64 immarg, i8* nocapture) #1


!llvm.module.flags = !{!0, !1, !2, !3}
!llvm.ident = !{!4}

!0 = !{i32 1, !"wchar_size", i32 4}
!1 = !{i32 7, !"PIC Level", i32 2}
!2 = !{i32 7, !"PIE Level", i32 2}
!3 = !{i32 7, !"uwtable", i32 1}
!4 = !{!"clang version 13.0.0"}
!5 = !{!6, !6, i64 0}
!6 = !{!"int", !7, i64 0}
!7 = !{!"omnipotent char", !8, i64 0}
!8 = !{!"Simple C/C++ TBAA"}
!9 = distinct !{!9, !10}
!10 = !{!"llvm.loop.mustprogress"}
!11 = distinct !{!11, !10}
